target datalayout = "e-m:e-p270:32:32-p271:32:32-p272:64:64-i64:64-i128:128-f80:128-n8:16:32:64-S128"
target triple = "x86_64-pc-linux-gnu"

%struct.PlatformTarget = type { ptr, i32, ptr, ptr, i32, i32, i32, i32, i32, i32, i32, [7 x %struct.AlignData], [7 x %struct.AlignData], [7 x %struct.AlignData], i32, i16, %union.anon.85, i8, i8, i8, i8, i8, i8, i8, i8, i8, i8, %struct.AlignData, i32, i32, i32, i32, i32, i32, i32, i32, i32, i32, i32, i32, i32, i32, i32, i32, ptr }
%union.anon.85 = type { %struct.anon.87 }
%struct.anon.87 = type { %struct.X86Features, i32, i32 }
%struct.X86Features = type { [2 x i64], ptr }
%struct.AlignData = type { i32, i32 }
%struct.VHeader_ = type { i32, i32, [0 x i8] }
%struct.Type_ = type { i32, ptr, ptr, ptr, %union.anon.96, ptr, ptr, %union.anon.98 }
%union.anon.96 = type { ptr }
%union.anon.98 = type { %struct.TypeFunction }
%struct.TypeFunction = type { ptr, ptr, ptr }
%struct.anon.94 = type { i32, i32 }
%struct.FunctionPrototype_ = type { i16, i16, ptr, ptr, ptr, ptr, ptr, ptr, ptr, ptr, ptr, ptr, ptr }

@platform_target = external global %struct.PlatformTarget, align 8
@type_void = external global ptr, align 8

; Function Attrs: nounwind uwtable
define dso_local ptr @riscv_create_params(ptr noundef %0, i1 noundef zeroext %1, ptr noundef %2, ptr noundef %3) #0 {
  %5 = alloca i32, align 4
  %6 = alloca ptr, align 8
  %7 = alloca ptr, align 8
  %8 = alloca ptr, align 8
  %9 = alloca ptr, align 8
  %10 = alloca i8, align 1
  %11 = alloca ptr, align 8
  %12 = alloca ptr, align 8
  %13 = alloca i32, align 4
  %14 = alloca ptr, align 8
  %15 = alloca i32, align 4
  store ptr %0, ptr %9, align 8
  %16 = zext i1 %1 to i8
  store i8 %16, ptr %10, align 1
  store ptr %2, ptr %11, align 8
  store ptr %3, ptr %12, align 8
  %17 = load ptr, ptr %9, align 8
  store ptr %17, ptr %6, align 8
  %18 = load ptr, ptr %6, align 8
  %19 = icmp ne ptr %18, null
  br i1 %19, label %21, label %20

20:                                               ; preds = %4
  store i32 0, ptr %5, align 4
  br label %26

21:                                               ; preds = %4
  %22 = load ptr, ptr %6, align 8
  store ptr %22, ptr %7, align 8
  %23 = load ptr, ptr %7, align 8
  %24 = getelementptr inbounds %struct.VHeader_, ptr %23, i64 -1
  %25 = load i32, ptr %24, align 4
  store i32 %25, ptr %5, align 4
  br label %26

26:                                               ; preds = %21, %20
  %27 = load i32, ptr %5, align 4
  store i32 %27, ptr %13, align 4
  %28 = load i32, ptr %13, align 4
  %29 = icmp ne i32 %28, 0
  br i1 %29, label %31, label %30

30:                                               ; preds = %26
  store ptr null, ptr %8, align 8
  br label %61

31:                                               ; preds = %26
  %32 = load i32, ptr %13, align 4
  %33 = zext i32 %32 to i64
  %34 = mul i64 32, %33
  %35 = call ptr @calloc_arena(i64 noundef %34)
  store ptr %35, ptr %14, align 8
  store i32 0, ptr %15, align 4
  br label %36

36:                                               ; preds = %56, %31
  %37 = load i32, ptr %15, align 4
  %38 = load i32, ptr %13, align 4
  %39 = icmp ult i32 %37, %38
  br i1 %39, label %40, label %59

40:                                               ; preds = %36
  %41 = load ptr, ptr %9, align 8
  %42 = load i32, ptr %15, align 4
  %43 = zext i32 %42 to i64
  %44 = getelementptr inbounds ptr, ptr %41, i64 %43
  %45 = load ptr, ptr %44, align 8
  %46 = call ptr @type_lowering(ptr noundef %45)
  %47 = load i8, ptr %10, align 1
  %48 = trunc i8 %47 to i1
  %49 = load ptr, ptr %11, align 8
  %50 = load ptr, ptr %12, align 8
  %51 = call ptr @riscv_classify_argument_type(ptr noundef %46, i1 noundef zeroext %48, ptr noundef %49, ptr noundef %50)
  %52 = load ptr, ptr %14, align 8
  %53 = load i32, ptr %15, align 4
  %54 = zext i32 %53 to i64
  %55 = getelementptr inbounds ptr, ptr %52, i64 %54
  store ptr %51, ptr %55, align 8
  br label %56

56:                                               ; preds = %40
  %57 = load i32, ptr %15, align 4
  %58 = add i32 %57, 1
  store i32 %58, ptr %15, align 4
  br label %36, !llvm.loop !7

59:                                               ; preds = %36
  %60 = load ptr, ptr %14, align 8
  store ptr %60, ptr %8, align 8
  br label %61

61:                                               ; preds = %59, %30
  %62 = load ptr, ptr %8, align 8
  ret ptr %62
}

; Function Attrs: nounwind uwtable
define internal ptr @riscv_classify_return(ptr noundef %0) #0 {
  %2 = alloca ptr, align 8
  %3 = alloca ptr, align 8
  %4 = alloca ptr, align 8
  %5 = alloca i32, align 4
  %6 = alloca i32, align 4
  store ptr %0, ptr %4, align 8
  %7 = load ptr, ptr %4, align 8
  store ptr %7, ptr %2, align 8
  %8 = load ptr, ptr %2, align 8
  %9 = getelementptr inbounds %struct.Type_, ptr %8, i32 0, i32 1
  %10 = load ptr, ptr %9, align 8
  %11 = load ptr, ptr @type_void, align 8
  %12 = icmp eq ptr %10, %11
  br i1 %12, label %13, label %15

13:                                               ; preds = %1
  %14 = call ptr @abi_arg_ignore()
  store ptr %14, ptr %3, align 8
  br label %21

15:                                               ; preds = %1
  store i32 2, ptr %5, align 4
  %16 = load i32, ptr getelementptr inbounds (%struct.anon.94, ptr getelementptr inbounds (%struct.PlatformTarget, ptr @platform_target, i32 0, i32 16), i32 0, i32 1), align 4
  %17 = icmp ne i32 %16, 0
  %18 = select i1 %17, i32 2, i32 0
  store i32 %18, ptr %6, align 4
  %19 = load ptr, ptr %4, align 8
  %20 = call ptr @riscv_classify_argument_type(ptr noundef %19, i1 noundef zeroext true, ptr noundef %5, ptr noundef %6)
  store ptr %20, ptr %3, align 8
  br label %21

21:                                               ; preds = %15, %13
  %22 = load ptr, ptr %3, align 8
  ret ptr %22
}

; Function Attrs: nounwind uwtable
define dso_local void @c_abi_func_create_riscv(ptr noundef %0) #0 {
  %2 = alloca ptr, align 8
  %3 = alloca i32, align 4
  %4 = alloca i32, align 4
  %5 = alloca ptr, align 8
  %6 = alloca ptr, align 8
  %7 = alloca i8, align 1
  %8 = alloca i32, align 4
  %9 = alloca i32, align 4
  store ptr %0, ptr %2, align 8
  store i32 8, ptr %3, align 4
  store i32 8, ptr %4, align 4
  %10 = load ptr, ptr %2, align 8
  %11 = getelementptr inbounds %struct.FunctionPrototype_, ptr %10, i32 0, i32 7
  %12 = load ptr, ptr %11, align 8
  %13 = call ptr @type_lowering(ptr noundef %12)
  store ptr %13, ptr %5, align 8
  %14 = load ptr, ptr %5, align 8
  %15 = call ptr @riscv_classify_return(ptr noundef %14)
  %16 = load ptr, ptr %2, align 8
  %17 = getelementptr inbounds %struct.FunctionPrototype_, ptr %16, i32 0, i32 8
  store ptr %15, ptr %17, align 8
  store ptr %15, ptr %6, align 8
  %18 = load ptr, ptr %6, align 8
  %19 = call zeroext i1 @abi_arg_is_indirect(ptr noundef %18)
  %20 = zext i1 %19 to i8
  store i8 %20, ptr %7, align 1
  %21 = load ptr, ptr %5, align 8
  %22 = call zeroext i1 @type_is_scalar(ptr noundef %21)
  br i1 %22, label %23, label %30

23:                                               ; preds = %1
  %24 = load ptr, ptr %5, align 8
  %25 = call i32 @type_size(ptr noundef %24)
  %26 = load i32, ptr getelementptr inbounds (%struct.PlatformTarget, ptr @platform_target, i32 0, i32 16), align 8
  %27 = mul i32 2, %26
  %28 = icmp ugt i32 %25, %27
  br i1 %28, label %29, label %30

29:                                               ; preds = %23
  store i8 1, ptr %7, align 1
  br label %30

30:                                               ; preds = %29, %23, %1
  %31 = load i8, ptr %7, align 1
  %32 = trunc i8 %31 to i1
  br i1 %32, label %33, label %36

33:                                               ; preds = %30
  %34 = load i32, ptr %3, align 4
  %35 = sub i32 %34, 1
  br label %38

36:                                               ; preds = %30
  %37 = load i32, ptr %3, align 4
  br label %38

38:                                               ; preds = %36, %33
  %39 = phi i32 [ %35, %33 ], [ %37, %36 ]
  store i32 %39, ptr %8, align 4
  %40 = load i32, ptr getelementptr inbounds (%struct.anon.94, ptr getelementptr inbounds (%struct.PlatformTarget, ptr @platform_target, i32 0, i32 16), i32 0, i32 1), align 4
  %41 = icmp ne i32 %40, 0
  br i1 %41, label %42, label %44

42:                                               ; preds = %38
  %43 = load i32, ptr %4, align 4
  br label %45

44:                                               ; preds = %38
  br label %45

45:                                               ; preds = %44, %42
  %46 = phi i32 [ %43, %42 ], [ 0, %44 ]
  store i32 %46, ptr %9, align 4
  %47 = load ptr, ptr %2, align 8
  %48 = load i16, ptr %47, align 8
  %49 = lshr i16 %48, 7
  %50 = and i16 %49, 1
  %51 = trunc i16 %50 to i1
  br i1 %51, label %52, label %61

52:                                               ; preds = %45
  %53 = load ptr, ptr %2, align 8
  %54 = getelementptr inbounds %struct.FunctionPrototype_, ptr %53, i32 0, i32 6
  %55 = load ptr, ptr %54, align 8
  %56 = call ptr @type_lowering(ptr noundef %55)
  %57 = call ptr @type_get_ptr(ptr noundef %56)
  %58 = call ptr @riscv_classify_argument_type(ptr noundef %57, i1 noundef zeroext true, ptr noundef %8, ptr noundef %9)
  %59 = load ptr, ptr %2, align 8
  %60 = getelementptr inbounds %struct.FunctionPrototype_, ptr %59, i32 0, i32 9
  store ptr %58, ptr %60, align 8
  br label %61

61:                                               ; preds = %52, %45
  %62 = load ptr, ptr %2, align 8
  %63 = getelementptr inbounds %struct.FunctionPrototype_, ptr %62, i32 0, i32 3
  %64 = load ptr, ptr %63, align 8
  %65 = call ptr @riscv_create_params(ptr noundef %64, i1 noundef zeroext true, ptr noundef %8, ptr noundef %9)
  %66 = load ptr, ptr %2, align 8
  %67 = getelementptr inbounds %struct.FunctionPrototype_, ptr %66, i32 0, i32 10
  store ptr %65, ptr %67, align 8
  %68 = load ptr, ptr %2, align 8
  %69 = getelementptr inbounds %struct.FunctionPrototype_, ptr %68, i32 0, i32 5
  %70 = load ptr, ptr %69, align 8
  %71 = call ptr @riscv_create_params(ptr noundef %70, i1 noundef zeroext false, ptr noundef %8, ptr noundef %9)
  %72 = load ptr, ptr %2, align 8
  %73 = getelementptr inbounds %struct.FunctionPrototype_, ptr %72, i32 0, i32 11
  store ptr %71, ptr %73, align 8
  ret void
}