; Function Attrs: nounwind uwtable
define dso_local void @c_abi_func_create_riscv(ptr nocapture noundef %0) local_unnamed_addr #0 {
  %2 = alloca i32, align 4
  %3 = alloca i32, align 4
  %4 = alloca i32, align 4
  %5 = alloca i32, align 4
  %6 = getelementptr inbounds i8, ptr %0, i64 48
  %7 = load ptr, ptr %6, align 8
  %8 = tail call fastcc ptr @type_lowering(ptr noundef %7)
  call void @llvm.lifetime.start.p0(i64 4, ptr nonnull %2)
  call void @llvm.lifetime.start.p0(i64 4, ptr nonnull %3)
  %9 = getelementptr inbounds i8, ptr %8, i64 8
  %10 = load ptr, ptr %9, align 8
  %11 = load ptr, ptr @type_void, align 8
  %12 = icmp eq ptr %10, %11
  br i1 %12, label %13, label %15

13:                                               ; preds = %1
  %14 = tail call ptr @abi_arg_ignore() #5
  br label %riscv_classify_return.exit

15:                                               ; preds = %1
  store i32 2, ptr %2, align 4
  %16 = load i32, ptr getelementptr inbounds (%struct.anon.94, ptr getelementptr inbounds (%struct.PlatformTarget, ptr @platform_target, i64 0, i32 16), i64 0, i32 1), align 4
  %.not.i = icmp eq i32 %16, 0
  %17 = select i1 %.not.i, i32 0, i32 2
  store i32 %17, ptr %3, align 4
  %18 = call fastcc ptr @riscv_classify_argument_type(ptr noundef nonnull %8, i1 noundef zeroext true, ptr noundef nonnull %2, ptr noundef nonnull %3)
  br label %riscv_classify_return.exit

riscv_classify_return.exit:                       ; preds = %13, %15
  %.0.i = phi ptr [ %14, %13 ], [ %18, %15 ]
  call void @llvm.lifetime.end.p0(i64 4, ptr nonnull %2)
  call void @llvm.lifetime.end.p0(i64 4, ptr nonnull %3)
  %19 = getelementptr inbounds i8, ptr %0, i64 56
  store ptr %.0.i, ptr %19, align 8
  %20 = tail call zeroext i1 @abi_arg_is_indirect(ptr noundef %.0.i) #5
  %21 = tail call zeroext i1 @type_is_scalar(ptr noundef nonnull %8) #5
  br i1 %21, label %22, label %27

22:                                               ; preds = %riscv_classify_return.exit
  %23 = tail call i32 @type_size(ptr noundef nonnull %8) #5
  %24 = load i32, ptr getelementptr inbounds (%struct.PlatformTarget, ptr @platform_target, i64 0, i32 16), align 8
  %25 = shl i32 %24, 1
  %26 = icmp ugt i32 %23, %25
  %spec.select = select i1 %26, i1 true, i1 %20
  br label %27

27:                                               ; preds = %22, %riscv_classify_return.exit
  %.0.shrunk = phi i1 [ %20, %riscv_classify_return.exit ], [ %spec.select, %22 ]
  %28 = select i1 %.0.shrunk, i32 7, i32 8
  store i32 %28, ptr %4, align 4
  %29 = load i32, ptr getelementptr inbounds (%struct.anon.94, ptr getelementptr inbounds (%struct.PlatformTarget, ptr @platform_target, i64 0, i32 16), i64 0, i32 1), align 4
  %.not = icmp eq i32 %29, 0
  %30 = select i1 %.not, i32 0, i32 8
  store i32 %30, ptr %5, align 4
  %31 = load i16, ptr %0, align 8
  %32 = and i16 %31, 128
  %.not16 = icmp eq i16 %32, 0
  br i1 %.not16, label %40, label %33

33:                                               ; preds = %27
  %34 = getelementptr inbounds i8, ptr %0, i64 40
  %35 = load ptr, ptr %34, align 8
  %36 = tail call fastcc ptr @type_lowering(ptr noundef %35)
  %37 = tail call ptr @type_get_ptr(ptr noundef %36) #5
  %38 = call fastcc ptr @riscv_classify_argument_type(ptr noundef %37, i1 noundef zeroext true, ptr noundef nonnull %4, ptr noundef nonnull %5)
  %39 = getelementptr inbounds i8, ptr %0, i64 64
  store ptr %38, ptr %39, align 8
  br label %40

40:                                               ; preds = %33, %27
  %41 = getelementptr inbounds i8, ptr %0, i64 16
  %42 = load ptr, ptr %41, align 8
  %.not.i17 = icmp eq ptr %42, null
  br i1 %.not.i17, label %riscv_create_params.exit, label %43

43:                                               ; preds = %40
  %44 = getelementptr inbounds i8, ptr %42, i64 -8
  %45 = load i32, ptr %44, align 4
  %.not21.i = icmp eq i32 %45, 0
  br i1 %.not21.i, label %riscv_create_params.exit, label %46

46:                                               ; preds = %43
  %47 = zext i32 %45 to i64
  %48 = shl nuw nsw i64 %47, 5
  %49 = tail call ptr @calloc_arena(i64 noundef %48) #5
  br label %50

50:                                               ; preds = %50, %46
  %indvars.iv.i = phi i64 [ 0, %46 ], [ %indvars.iv.next.i, %50 ]
  %51 = getelementptr inbounds ptr, ptr %42, i64 %indvars.iv.i
  %52 = load ptr, ptr %51, align 8
  %53 = tail call fastcc ptr @type_lowering(ptr noundef %52)
  %54 = call fastcc ptr @riscv_classify_argument_type(ptr noundef %53, i1 noundef zeroext true, ptr noundef nonnull %4, ptr noundef nonnull %5)
  %55 = getelementptr inbounds ptr, ptr %49, i64 %indvars.iv.i
  store ptr %54, ptr %55, align 8
  %indvars.iv.next.i = add nuw nsw i64 %indvars.iv.i, 1
  %exitcond.not.i = icmp eq i64 %indvars.iv.next.i, %47
  br i1 %exitcond.not.i, label %riscv_create_params.exit, label %50, !llvm.loop !7

riscv_create_params.exit:                         ; preds = %50, %40, %43
  %.019.i = phi ptr [ null, %43 ], [ null, %40 ], [ %49, %50 ]
  %56 = getelementptr inbounds i8, ptr %0, i64 72
  store ptr %.019.i, ptr %56, align 8
  %57 = getelementptr inbounds i8, ptr %0, i64 32
  %58 = load ptr, ptr %57, align 8
  %.not.i18 = icmp eq ptr %58, null
  br i1 %.not.i18, label %riscv_create_params.exit24, label %59

59:                                               ; preds = %riscv_create_params.exit
  %60 = getelementptr inbounds i8, ptr %58, i64 -8
  %61 = load i32, ptr %60, align 4
  %.not21.i19 = icmp eq i32 %61, 0
  br i1 %.not21.i19, label %riscv_create_params.exit24, label %62

62:                                               ; preds = %59
  %63 = zext i32 %61 to i64
  %64 = shl nuw nsw i64 %63, 5
  %65 = tail call ptr @calloc_arena(i64 noundef %64) #5
  br label %66

66:                                               ; preds = %66, %62
  %indvars.iv.i20 = phi i64 [ 0, %62 ], [ %indvars.iv.next.i21, %66 ]
  %67 = getelementptr inbounds ptr, ptr %58, i64 %indvars.iv.i20
  %68 = load ptr, ptr %67, align 8
  %69 = tail call fastcc ptr @type_lowering(ptr noundef %68)
  %70 = call fastcc ptr @riscv_classify_argument_type(ptr noundef %69, i1 noundef zeroext false, ptr noundef nonnull %4, ptr noundef nonnull %5)
  %71 = getelementptr inbounds ptr, ptr %65, i64 %indvars.iv.i20
  store ptr %70, ptr %71, align 8
  %indvars.iv.next.i21 = add nuw nsw i64 %indvars.iv.i20, 1
  %exitcond.not.i22 = icmp eq i64 %indvars.iv.next.i21, %63
  br i1 %exitcond.not.i22, label %riscv_create_params.exit24, label %66, !llvm.loop !7

riscv_create_params.exit24:                       ; preds = %66, %riscv_create_params.exit, %59
  %.019.i23 = phi ptr [ null, %59 ], [ null, %riscv_create_params.exit ], [ %65, %66 ]
  %72 = getelementptr inbounds i8, ptr %0, i64 80
  store ptr %.019.i23, ptr %72, align 8
  ret void
}